target datalayout = "e-m:e-p270:32:32-p271:32:32-p272:64:64-i64:64-i128:128-f80:128-n8:16:32:64-S128"
target triple = "x86_64-pc-linux-gnu"

%struct._psqlSettings = type { ptr, i32, ptr, i8, ptr, ptr, %struct.printQueryOpt, ptr, ptr, ptr, i8, i8, i32, i32, ptr, ptr, i8, [4 x ptr], i8, i32, ptr, i8, i32, ptr, ptr, i64, i64, i8, ptr, ptr, ptr, i8, i8, i8, i8, i8, i8, i8, i32, i32, i32, i32, i32, i32, i32, i32, ptr, ptr, ptr, i32, i8, i32 }
%struct.printQueryOpt = type { %struct.printTableOpt, ptr, ptr, ptr, i8, ptr, i32 }
%struct.printTableOpt = type { i32, i16, i32, i32, i16, i16, i32, i8, i8, i8, i8, i64, ptr, %struct.separator, %struct.separator, [2 x i8], i8, ptr, i32, i32, i32, i32, i32, i32 }
%struct.separator = type { ptr, i8 }

@.str = private unnamed_addr constant [20 x i8] c"invalid command \\%s\00", align 1
@pset = external global %struct._psqlSettings, align 8
@.str.1 = private unnamed_addr constant [17 x i8] c"Try \\? for help.\00", align 1
@.str.2 = private unnamed_addr constant [33 x i8] c"\\%s: extra argument \22%s\22 ignored\00", align 1

; Function Attrs: nounwind uwtable
define dso_local i32 @HandleSlashCmds(ptr noundef %0, ptr noundef %1, ptr noundef %2, ptr noundef %3) #0 {
  %5 = alloca ptr, align 8
  %6 = alloca ptr, align 8
  %7 = alloca ptr, align 8
  %8 = alloca ptr, align 8
  %9 = alloca i32, align 4
  %10 = alloca ptr, align 8
  %11 = alloca ptr, align 8
  %12 = alloca i8, align 1
  store ptr %0, ptr %5, align 8
  store ptr %1, ptr %6, align 8
  store ptr %2, ptr %7, align 8
  store ptr %3, ptr %8, align 8
  call void @llvm.lifetime.start.p0(i64 4, ptr %9) #10
  call void @llvm.lifetime.start.p0(i64 8, ptr %10) #10
  call void @llvm.lifetime.start.p0(i64 8, ptr %11) #10
  %13 = load ptr, ptr %5, align 8
  %14 = call ptr @psql_scan_slash_command(ptr noundef %13)
  store ptr %14, ptr %10, align 8
  %15 = load ptr, ptr %10, align 8
  %16 = load ptr, ptr %5, align 8
  %17 = load ptr, ptr %6, align 8
  %18 = load ptr, ptr %7, align 8
  %19 = load ptr, ptr %8, align 8
  %20 = call i32 @exec_command(ptr noundef %15, ptr noundef %16, ptr noundef %17, ptr noundef %18, ptr noundef %19)
  store i32 %20, ptr %9, align 4
  %21 = load i32, ptr %9, align 4
  %22 = icmp eq i32 %21, 0
  br i1 %22, label %23, label %29

23:                                               ; preds = %4
  %24 = load ptr, ptr %10, align 8
  call void (i32, i32, ptr, ...) @pg_log_generic(i32 noundef 4, i32 noundef 0, ptr noundef @.str, ptr noundef %24)
  %25 = load i8, ptr getelementptr inbounds nuw (%struct._psqlSettings, ptr @pset, i32 0, i32 21), align 8, !range !4, !noundef !5
  %26 = trunc i8 %25 to i1
  br i1 %26, label %27, label %28

27:                                               ; preds = %23
  call void (i32, i32, ptr, ...) @pg_log_generic(i32 noundef 4, i32 noundef 2, ptr noundef @.str.1)
  br label %28

28:                                               ; preds = %27, %23
  store i32 5, ptr %9, align 4
  br label %29

29:                                               ; preds = %28, %4
  %30 = load i32, ptr %9, align 4
  %31 = icmp ne i32 %30, 5
  br i1 %31, label %32, label %52

32:                                               ; preds = %29
  call void @llvm.lifetime.start.p0(i64 1, ptr %12) #10
  %33 = load ptr, ptr %6, align 8
  %34 = call zeroext i1 @conditional_active(ptr noundef %33)
  %35 = zext i1 %34 to i8
  store i8 %35, ptr %12, align 1
  %36 = load ptr, ptr %6, align 8
  call void @conditional_stack_push(ptr noundef %36, i32 noundef 3)
  br label %37

37:                                               ; preds = %47, %32
  %38 = load ptr, ptr %5, align 8
  %39 = call ptr @psql_scan_slash_option(ptr noundef %38, i32 noundef 0, ptr noundef null, i1 noundef zeroext false)
  store ptr %39, ptr %11, align 8
  %40 = icmp ne ptr %39, null
  br i1 %40, label %41, label %49

41:                                               ; preds = %37
  %42 = load i8, ptr %12, align 1, !range !4, !noundef !5
  %43 = trunc i8 %42 to i1
  br i1 %43, label %44, label %47

44:                                               ; preds = %41
  %45 = load ptr, ptr %10, align 8
  %46 = load ptr, ptr %11, align 8
  call void (i32, i32, ptr, ...) @pg_log_generic(i32 noundef 3, i32 noundef 0, ptr noundef @.str.2, ptr noundef %45, ptr noundef %46)
  br label %47

47:                                               ; preds = %44, %41
  %48 = load ptr, ptr %11, align 8
  call void @free(ptr noundef %48) #10
  br label %37, !llvm.loop !6

49:                                               ; preds = %37
  %50 = load ptr, ptr %6, align 8
  %51 = call zeroext i1 @conditional_stack_pop(ptr noundef %50)
  call void @llvm.lifetime.end.p0(i64 1, ptr %12) #10
  br label %60

52:                                               ; preds = %29
  br label %53

53:                                               ; preds = %57, %52
  %54 = load ptr, ptr %5, align 8
  %55 = call ptr @psql_scan_slash_option(ptr noundef %54, i32 noundef 4, ptr noundef null, i1 noundef zeroext false)
  store ptr %55, ptr %11, align 8
  %56 = icmp ne ptr %55, null
  br i1 %56, label %57, label %59

57:                                               ; preds = %53
  %58 = load ptr, ptr %11, align 8
  call void @free(ptr noundef %58) #10
  br label %53, !llvm.loop !8

59:                                               ; preds = %53
  br label %60

60:                                               ; preds = %59, %49
  %61 = load ptr, ptr %5, align 8
  call void @psql_scan_slash_command_end(ptr noundef %61)
  %62 = load ptr, ptr %10, align 8
  call void @free(ptr noundef %62) #10
  %63 = load ptr, ptr getelementptr inbounds nuw (%struct._psqlSettings, ptr @pset, i32 0, i32 2), align 8
  %64 = call i32 @fflush(ptr noundef %63)
  %65 = load i32, ptr %9, align 4
  call void @llvm.lifetime.end.p0(i64 8, ptr %11) #10
  call void @llvm.lifetime.end.p0(i64 8, ptr %10) #10
  call void @llvm.lifetime.end.p0(i64 4, ptr %9) #10
  ret i32 %65
}