; Function Attrs: nounwind uwtable
define dso_local range(i32 1, 6) i32 @HandleSlashCmds(ptr noundef %0, ptr noundef %1, ptr noundef %2, ptr noundef captures(address_is_null) %3) local_unnamed_addr #0 {
  %5 = tail call ptr @psql_scan_slash_command(ptr noundef %0) #16
  %6 = tail call fastcc i32 @exec_command(ptr noundef %5, ptr noundef %0, ptr noundef %1, ptr noundef %2, ptr noundef %3)
  switch i32 %6, label %12 [
    i32 0, label %7
    i32 5, label %.preheader
  ]

7:                                                ; preds = %4
  tail call void (i32, i32, ptr, ...) @pg_log_generic(i32 noundef 4, i32 noundef 0, ptr noundef nonnull @.str, ptr noundef %5) #16
  %8 = load i8, ptr getelementptr inbounds nuw (i8, ptr @pset, i64 328), align 8, !range !4, !noundef !5
  %9 = trunc nuw i8 %8 to i1
  br i1 %9, label %10, label %.preheader

10:                                               ; preds = %7
  tail call void (i32, i32, ptr, ...) @pg_log_generic(i32 noundef 4, i32 noundef 2, ptr noundef nonnull @.str.1) #16
  br label %.preheader

.preheader:                                       ; preds = %4, %7, %10
  %11 = tail call ptr @psql_scan_slash_option(ptr noundef %0, i32 noundef 4, ptr noundef null, i1 noundef zeroext false) #16
  %.not2427 = icmp eq ptr %11, null
  br i1 %.not2427, label %.loopexit, label %.lr.ph28

12:                                               ; preds = %4
  %13 = tail call zeroext i1 @conditional_active(ptr noundef %1) #16
  tail call void @conditional_stack_push(ptr noundef %1, i32 noundef 3) #16
  %14 = tail call ptr @psql_scan_slash_option(ptr noundef %0, i32 noundef 0, ptr noundef null, i1 noundef zeroext false) #16
  %.not2526 = icmp eq ptr %14, null
  br i1 %.not2526, label %._crit_edge, label %.lr.ph

.lr.ph:                                           ; preds = %12
  br i1 %13, label %.lr.ph.split.us, label %.lr.ph.split

.lr.ph.split.us:                                  ; preds = %.lr.ph, %.lr.ph.split.us
  %15 = phi ptr [ %16, %.lr.ph.split.us ], [ %14, %.lr.ph ]
  tail call void (i32, i32, ptr, ...) @pg_log_generic(i32 noundef 3, i32 noundef 0, ptr noundef nonnull @.str.2, ptr noundef %5, ptr noundef nonnull %15) #16
  tail call void @free(ptr noundef nonnull %15) #16
  %16 = tail call ptr @psql_scan_slash_option(ptr noundef %0, i32 noundef 0, ptr noundef null, i1 noundef zeroext false) #16
  %.not25.us = icmp eq ptr %16, null
  br i1 %.not25.us, label %._crit_edge, label %.lr.ph.split.us, !llvm.loop !6

.lr.ph.split:                                     ; preds = %.lr.ph, %.lr.ph.split
  %17 = phi ptr [ %18, %.lr.ph.split ], [ %14, %.lr.ph ]
  tail call void @free(ptr noundef nonnull %17) #16
  %18 = tail call ptr @psql_scan_slash_option(ptr noundef %0, i32 noundef 0, ptr noundef null, i1 noundef zeroext false) #16
  %.not25 = icmp eq ptr %18, null
  br i1 %.not25, label %._crit_edge, label %.lr.ph.split, !llvm.loop !6

._crit_edge:                                      ; preds = %.lr.ph.split, %.lr.ph.split.us, %12
  %19 = tail call zeroext i1 @conditional_stack_pop(ptr noundef %1) #16
  br label %.loopexit

.lr.ph28:                                         ; preds = %.preheader, %.lr.ph28
  %20 = phi ptr [ %21, %.lr.ph28 ], [ %11, %.preheader ]
  tail call void @free(ptr noundef nonnull %20) #16
  %21 = tail call ptr @psql_scan_slash_option(ptr noundef %0, i32 noundef 4, ptr noundef null, i1 noundef zeroext false) #16
  %.not24 = icmp eq ptr %21, null
  br i1 %.not24, label %.loopexit, label %.lr.ph28, !llvm.loop !8

.loopexit:                                        ; preds = %.lr.ph28, %.preheader, %._crit_edge
  %.032 = phi i32 [ 5, %.preheader ], [ %6, %._crit_edge ], [ 5, %.lr.ph28 ]
  tail call void @psql_scan_slash_command_end(ptr noundef %0) #16
  tail call void @free(ptr noundef %5) #16
  %22 = load ptr, ptr getelementptr inbounds nuw (i8, ptr @pset, i64 16), align 8
  %23 = tail call i32 @fflush(ptr noundef %22)
  ret i32 %.032
}